; Function Attrs: nounwind uwtable
define internal range(i32 0, 2) i32 @readbuffer_free(ptr noundef captures(address_is_null) %0) #2 {
  %2 = icmp eq ptr %0, null
  br i1 %2, label %11, label %3

3:                                                ; preds = %1
  %4 = getelementptr inbounds nuw i8, ptr %0, i64 64
  %5 = load ptr, ptr %4, align 8, !tbaa !3
  %6 = getelementptr inbounds nuw i8, ptr %5, i64 8
  %7 = load ptr, ptr %6, align 8, !tbaa !21
  tail call void @CRYPTO_free(ptr noundef %7, ptr noundef nonnull @.str.2, i32 noundef 79) #5
  %8 = load ptr, ptr %4, align 8, !tbaa !3
  tail call void @CRYPTO_free(ptr noundef %8, ptr noundef nonnull @.str.2, i32 noundef 80) #5
  store ptr null, ptr %4, align 8, !tbaa !3
  %9 = getelementptr inbounds nuw i8, ptr %0, i64 40
  store i32 0, ptr %9, align 8, !tbaa !27
  %10 = getelementptr inbounds nuw i8, ptr %0, i64 48
  store i32 0, ptr %10, align 8, !tbaa !28
  br label %11

11:                                               ; preds = %1, %3
  %.0 = phi i32 [ 1, %3 ], [ 0, %1 ]
  ret i32 %.0
}